target datalayout = "e-m:e-p270:32:32-p271:32:32-p272:64:64-i64:64-i128:128-f80:128-n8:16:32:64-S128"
target triple = "x86_64-pc-linux-gnu"

%struct.AVFilterFormats = type { i32, ptr, i32, ptr }

@.str.5 = private unnamed_addr constant [12 x i8] c"sample rate\00", align 1
@.str.18 = private unnamed_addr constant [15 x i8] c"Empty %s list\0A\00", align 1
@.str.19 = private unnamed_addr constant [15 x i8] c"Duplicated %s\0A\00", align 1

; Function Attrs: nounwind uwtable
define internal i32 @check_list(ptr noundef %0, ptr noundef %1, ptr noundef %2) #0 {
  %4 = alloca i32, align 4
  %5 = alloca ptr, align 8
  %6 = alloca ptr, align 8
  %7 = alloca ptr, align 8
  %8 = alloca i32, align 4
  %9 = alloca i32, align 4
  %10 = alloca i32, align 4
  store ptr %0, ptr %5, align 8, !tbaa !71
  store ptr %1, ptr %6, align 8, !tbaa !134
  store ptr %2, ptr %7, align 8, !tbaa !27
  call void @llvm.lifetime.start.p0(i64 4, ptr %8) #7
  call void @llvm.lifetime.start.p0(i64 4, ptr %9) #7
  %11 = load ptr, ptr %7, align 8, !tbaa !27
  %12 = icmp ne ptr %11, null
  br i1 %12, label %14, label %13

13:                                               ; preds = %3
  store i32 0, ptr %4, align 4
  store i32 1, ptr %10, align 4
  br label %66

14:                                               ; preds = %3
  %15 = load ptr, ptr %7, align 8, !tbaa !27
  %16 = getelementptr inbounds nuw %struct.AVFilterFormats, ptr %15, i32 0, i32 0
  %17 = load i32, ptr %16, align 8, !tbaa !28
  %18 = icmp ne i32 %17, 0
  br i1 %18, label %22, label %19

19:                                               ; preds = %14
  %20 = load ptr, ptr %5, align 8, !tbaa !71
  %21 = load ptr, ptr %6, align 8, !tbaa !134
  call void (ptr, i32, ptr, ...) @av_log(ptr noundef %20, i32 noundef 16, ptr noundef @.str.18, ptr noundef %21)
  store i32 -22, ptr %4, align 4
  store i32 1, ptr %10, align 4
  br label %66

22:                                               ; preds = %14
  store i32 0, ptr %8, align 4, !tbaa !21
  br label %23

23:                                               ; preds = %62, %22
  %24 = load i32, ptr %8, align 4, !tbaa !21
  %25 = load ptr, ptr %7, align 8, !tbaa !27
  %26 = getelementptr inbounds nuw %struct.AVFilterFormats, ptr %25, i32 0, i32 0
  %27 = load i32, ptr %26, align 8, !tbaa !28
  %28 = icmp ult i32 %24, %27
  br i1 %28, label %29, label %65

29:                                               ; preds = %23
  %30 = load i32, ptr %8, align 4, !tbaa !21
  %31 = add i32 %30, 1
  store i32 %31, ptr %9, align 4, !tbaa !21
  br label %32

32:                                               ; preds = %58, %29
  %33 = load i32, ptr %9, align 4, !tbaa !21
  %34 = load ptr, ptr %7, align 8, !tbaa !27
  %35 = getelementptr inbounds nuw %struct.AVFilterFormats, ptr %34, i32 0, i32 0
  %36 = load i32, ptr %35, align 8, !tbaa !28
  %37 = icmp ult i32 %33, %36
  br i1 %37, label %38, label %61

38:                                               ; preds = %32
  %39 = load ptr, ptr %7, align 8, !tbaa !27
  %40 = getelementptr inbounds nuw %struct.AVFilterFormats, ptr %39, i32 0, i32 1
  %41 = load ptr, ptr %40, align 8, !tbaa !32
  %42 = load i32, ptr %8, align 4, !tbaa !21
  %43 = zext i32 %42 to i64
  %44 = getelementptr inbounds nuw i32, ptr %41, i64 %43
  %45 = load i32, ptr %44, align 4, !tbaa !21
  %46 = load ptr, ptr %7, align 8, !tbaa !27
  %47 = getelementptr inbounds nuw %struct.AVFilterFormats, ptr %46, i32 0, i32 1
  %48 = load ptr, ptr %47, align 8, !tbaa !32
  %49 = load i32, ptr %9, align 4, !tbaa !21
  %50 = zext i32 %49 to i64
  %51 = getelementptr inbounds nuw i32, ptr %48, i64 %50
  %52 = load i32, ptr %51, align 4, !tbaa !21
  %53 = icmp eq i32 %45, %52
  br i1 %53, label %54, label %57

54:                                               ; preds = %38
  %55 = load ptr, ptr %5, align 8, !tbaa !71
  %56 = load ptr, ptr %6, align 8, !tbaa !134
  call void (ptr, i32, ptr, ...) @av_log(ptr noundef %55, i32 noundef 16, ptr noundef @.str.19, ptr noundef %56)
  store i32 -22, ptr %4, align 4
  store i32 1, ptr %10, align 4
  br label %66

57:                                               ; preds = %38
  br label %58

58:                                               ; preds = %57
  %59 = load i32, ptr %9, align 4, !tbaa !21
  %60 = add i32 %59, 1
  store i32 %60, ptr %9, align 4, !tbaa !21
  br label %32, !llvm.loop !135

61:                                               ; preds = %32
  br label %62

62:                                               ; preds = %61
  %63 = load i32, ptr %8, align 4, !tbaa !21
  %64 = add i32 %63, 1
  store i32 %64, ptr %8, align 4, !tbaa !21
  br label %23, !llvm.loop !136

65:                                               ; preds = %23
  store i32 0, ptr %4, align 4
  store i32 1, ptr %10, align 4
  br label %66

66:                                               ; preds = %65, %54, %19, %13
  call void @llvm.lifetime.end.p0(i64 4, ptr %9) #7
  call void @llvm.lifetime.end.p0(i64 4, ptr %8) #7
  %67 = load i32, ptr %4, align 4
  ret i32 %67
}

; Function Attrs: nounwind uwtable
define i32 @ff_formats_check_sample_rates(ptr noundef %0, ptr noundef %1) #0 {
  %3 = alloca i32, align 4
  %4 = alloca ptr, align 8
  %5 = alloca ptr, align 8
  store ptr %0, ptr %4, align 8, !tbaa !71
  store ptr %1, ptr %5, align 8, !tbaa !27
  %6 = load ptr, ptr %5, align 8, !tbaa !27
  %7 = icmp ne ptr %6, null
  br i1 %7, label %8, label %13

8:                                                ; preds = %2
  %9 = load ptr, ptr %5, align 8, !tbaa !27
  %10 = getelementptr inbounds nuw %struct.AVFilterFormats, ptr %9, i32 0, i32 0
  %11 = load i32, ptr %10, align 8, !tbaa !28
  %12 = icmp ne i32 %11, 0
  br i1 %12, label %14, label %13

13:                                               ; preds = %8, %2
  store i32 0, ptr %3, align 4
  br label %18

14:                                               ; preds = %8
  %15 = load ptr, ptr %4, align 8, !tbaa !71
  %16 = load ptr, ptr %5, align 8, !tbaa !27
  %17 = call i32 @check_list(ptr noundef %15, ptr noundef @.str.5, ptr noundef %16)
  store i32 %17, ptr %3, align 4
  br label %18

18:                                               ; preds = %14, %13
  %19 = load i32, ptr %3, align 4
  ret i32 %19
}